target datalayout = "e-m:e-p270:32:32-p271:32:32-p272:64:64-i64:64-i128:128-f80:128-n8:16:32:64-S128"
target triple = "x86_64-pc-linux-gnu"

; Function Attrs: mustprogress uwtable
define internal noundef i32 @_ZL9math_modfP9lua_State(ptr noundef %0) #2 {
  %2 = alloca ptr, align 8
  %3 = alloca double, align 8
  %4 = alloca double, align 8
  store ptr %0, ptr %2, align 8, !tbaa !20
  call void @llvm.lifetime.start.p0(i64 8, ptr %3) #11
  call void @llvm.lifetime.start.p0(i64 8, ptr %4) #11
  %5 = load ptr, ptr %2, align 8, !tbaa !20
  %6 = call noundef double @_Z16luaL_checknumberP9lua_Statei(ptr noundef %5, i32 noundef 1)
  %7 = call double @modf(double noundef %6, ptr noundef %3) #11
  store double %7, ptr %4, align 8, !tbaa !37
  %8 = load ptr, ptr %2, align 8, !tbaa !20
  %9 = load double, ptr %3, align 8, !tbaa !37
  call void @_Z14lua_pushnumberP9lua_Stated(ptr noundef %8, double noundef %9)
  %10 = load ptr, ptr %2, align 8, !tbaa !20
  %11 = load double, ptr %4, align 8, !tbaa !37
  call void @_Z14lua_pushnumberP9lua_Stated(ptr noundef %10, double noundef %11)
  call void @llvm.lifetime.end.p0(i64 8, ptr %4) #11
  call void @llvm.lifetime.end.p0(i64 8, ptr %3) #11
  ret i32 2
}