; Function Attrs: mustprogress uwtable
define internal noundef i32 @_ZL9math_modfP9lua_State(ptr noundef %0) #0 {
  %2 = alloca double, align 8
  call void @llvm.lifetime.start.p0(i64 8, ptr nonnull %2) #10
  %3 = tail call noundef double @_Z16luaL_checknumberP9lua_Statei(ptr noundef %0, i32 noundef 1)
  %4 = call double @modf(double noundef %3, ptr noundef nonnull %2) #10
  %5 = load double, ptr %2, align 8, !tbaa !31
  tail call void @_Z14lua_pushnumberP9lua_Stated(ptr noundef %0, double noundef %5)
  tail call void @_Z14lua_pushnumberP9lua_Stated(ptr noundef %0, double noundef %4)
  call void @llvm.lifetime.end.p0(i64 8, ptr nonnull %2) #10
  ret i32 2
}